Certificate:
    Data:
        Version: 3 (0x2)
        Serial Number: 1 (0x1)
    Signature Algorithm: sha1WithRSAEncryption
        Issuer: C=US, ST=Unset, L=Unset, O=Unset, CN=www.example.com
        Validity
            Not Before: Mar 14 01:46:46 2014 GMT
            Not After : Mar 11 01:46:46 2024 GMT
        Subject: C=US, ST=Unset, O=Unset, CN=www.example.com
        Subject Public Key Info:
            Public Key Algorithm: rsaEncryption
                Public-Key: (2048 bit)
                Modulus:
                    00:a9:61:2d:31:5a:62:45:66:9d:cb:16:57:16:e6:
                    3c:f1:b5:1a:e3:16:6d:ef:ac:42:f9:1b:09:92:bd:
                    fd:70:b6:d8:78:72:e2:04:8c:4b:43:9d:5c:71:64:
                    05:93:d3:5e:d2:11:ba:62:3c:67:74:e4:d9:59:66:
                    53:3b:fc:a6:e0:3e:47:6f:eb:b1:c8:a1:d8:39:d2:
                    de:d7:7d:57:ca:54:1d:8c:84:18:3f:23:dc:f9:b5:
                    d0:45:71:c9:f7:38:dd:c3:99:2c:76:82:77:b3:cc:
                    c5:72:15:2a:69:31:d1:b2:f0:9b:c5:6e:0b:4f:0e:
                    7e:4d:37:f7:b5:65:5a:83:f5:37:27:0b:35:eb:61:
                    00:e8:05:d1:0c:0a:e9:22:0c:f9:a0:ba:0d:1f:54:
                    c4:34:bd:05:11:b9:5f:f3:c6:b7:0a:a3:8c:50:d8:
                    83:a8:92:17:04:c6:97:4d:13:bf:b4:c1:7f:06:8f:
                    bf:85:c9:df:12:a3:09:1f:08:7a:13:14:ab:8e:41:
                    cd:5e:aa:64:cb:25:4a:f1:f4:45:74:bf:9d:21:10:
                    b9:00:eb:d3:ee:a2:ee:98:77:0d:89:6c:c1:4a:c3:
                    ee:c8:77:de:e6:db:c0:7f:96:f9:28:41:42:f5:65:
                    19:55:37:72:b9:08:04:b7:be:cf:b5:1d:e1:5f:ec:
                    19:01
                Exponent: 65537 (0x10001)
        X509v3 extensions:
            X509v3 Basic Constraints: 
                CA:FALSE
            X509v3 Subject Key Identifier: 
                D8:4E:BD:9A:A6:B7:54:CD:E3:6C:41:9B:F5:8E:33:C8:29:75:77:16
            X509v3 Authority Key Identifier: 
                keyid:89:66:16:D4:E4:0F:65:B8:28:46:F4:9A:00:D5:3E:C9:5B:3C:91:A6

    Signature Algorithm: sha1WithRSAEncryption
         92:20:fc:7d:ff:f5:43:22:8f:23:cf:22:21:45:6e:8e:3c:be:
         26:1b:b0:b8:ef:5e:15:11:51:fd:fc:33:8f:cc:00:56:f9:18:
         82:c8:ee:6d:dd:d4:5f:d3:5e:0c:99:08:ac:18:14:cc:6b:06:
         50:eb:21:64:2a:8e:0f:e8:fc:2b:e2:d6:fa:38:40:1a:b8:11:
         21:49:3e:03:c3:fa:e7:95:97:1c:3b:5e:30:70:26:9e:0f:77:
         e2:7f:c4:f9:d8:ae:82:7e:ab:59:ca:00:49:35:49:eb:20:25:
         2c:68:42:05:2f:b1:31:71:a6:bb:b5:fe:b1:c2:ec:b3:33:34:
         9d:90:7d:19:bc:aa:39:fe:aa:02:53:42:9d:fe:29:d9:e6:7c:
         7c:bd:73:52:6d:66:5e:95:fd:0a:d1:5c:92:df:0c:10:70:e3:
         84:c6:7f:7d:34:5f:d3:3c:43:49:d7:9c:cd:7b:d6:22:c7:d6:
         a2:34:ca:54:ea:ac:8f:59:f7:1a:75:4a:c3:84:66:2d:b2:6b:
         8e:d9:73:e5:e5:74:b4:45:7a:85:a5:75:3e:50:a9:db:be:22:
         9f:34:4e:9c:d7:16:dd:c1:58:a4:13:54:45:68:e8:71:e1:51:
         44:4d:b6:13:b2:36:3d:61:d9:ce:ce:91:a7:a1:53:e8:cd:82:
         2b:58:6f:dc
-----BEGIN CERTIFICATE-----
MIIDZjCCAk6gAwIBAgIBATANBgkqhkiG9w0BAQUFADBXMQswCQYDVQQGEwJVUzEO
MAwGA1UECAwFVW5zZXQxDjAMBgNVBAcMBVVuc2V0MQ4wDAYDVQQKDAVVbnNldDEY
MBYGA1UEAwwPd3d3LmV4YW1wbGUuY29tMB4XDTE0MDMxNDAxNDY0NloXDTI0MDMx
MTAxNDY0NlowRzELMAkGA1UEBhMCVVMxDjAMBgNVBAgMBVVuc2V0MQ4wDAYDVQQK
DAVVbnNldDEYMBYGA1UEAwwPd3d3LmV4YW1wbGUuY29tMIIBIjANBgkqhkiG9w0B
AQEFAAOCAQ8AMIIBCgKCAQEAqWEtMVpiRWadyxZXFuY88bUa4xZt76xC+RsJkr39
cLbYeHLiBIxLQ51ccWQFk9Ne0hG6YjxndOTZWWZTO/ym4D5Hb+uxyKHYOdLe131X
ylQdjIQYPyPc+bXQRXHJ9zjdw5ksdoJ3s8zFchUqaTHRsvCbxW4LTw5+TTf3tWVa
g/U3Jws162EA6AXRDArpIgz5oLoNH1TENL0FEblf88a3CqOMUNiDqJIXBMaXTRO/
tMF/Bo+/hcnfEqMJHwh6ExSrjkHNXqpkyyVK8fRFdL+dIRC5AOvT7qLumHcNiWzB
SsPuyHfe5tvAf5b5KEFC9WUZVTdyuQgEt77PtR3hX+wZAQIDAQABo00wSzAJBgNV
HRMEAjAAMB0GA1UdDgQWBBTYTr2aprdUzeNsQZv1jjPIKXV3FjAfBgNVHSMEGDAW
gBSJZhbU5A9luChG9JoA1T7JWzyRpjANBgkqhkiG9w0BAQUFAAOCAQEAkiD8ff/1
QyKPI88iIUVujjy+JhuwuO9eFRFR/fwzj8wAVvkYgsjubd3UX9NeDJkIrBgUzGsG
UOshZCqOD+j8K+LW+jhAGrgRIUk+A8P655WXHDteMHAmng934n/E+diugn6rWcoA
STVJ6yAlLGhCBS+xMXGmu7X+scLsszM0nZB9GbyqOf6qAlNCnf4p2eZ8fL1zUm1m
XpX9CtFckt8MEHDjhMZ/fTRf0zxDSdeczXvWIsfWojTKVOqsj1n3GnVKw4RmLbJr
jtlz5eV0tEV6haV1PlCp274inzROnNcW3cFYpBNURWjoceFRRE22E7I2PWHZzs6R
p6FT6M2CK1hv3A==
-----END CERTIFICATE-----
